; Function Attrs: mustprogress uwtable
define hidden void @_ZN4lean15mark_used_fvarsERKNS_4exprERKNS_6bufferIS0_Lm16EEERNS3_IbLm16EEE(ptr noundef nonnull align 8 dereferenceable(8) %0, ptr noundef nonnull align 8 dereferenceable(152) %1, ptr noundef nonnull align 8 dereferenceable(40) %2) local_unnamed_addr #0 personality ptr @__gxx_personality_v0 {
  %4 = alloca i8, align 1
  %5 = alloca i8, align 1
  %6 = alloca %"class.std::function", align 8
  %7 = getelementptr inbounds nuw i8, ptr %1, i64 8
  %8 = load i64, ptr %7, align 8, !tbaa !65
  call void @llvm.lifetime.start.p0(i64 1, ptr nonnull %4) #25
  store i8 0, ptr %4, align 1, !tbaa !72
  call void @_ZN4lean6bufferIbLm16EE6resizeEmRKb(ptr noundef nonnull align 8 dereferenceable(40) %2, i64 noundef %8, ptr noundef nonnull align 1 dereferenceable(1) %4)
  call void @llvm.lifetime.end.p0(i64 1, ptr nonnull %4) #25
  %9 = load ptr, ptr %0, align 8, !tbaa !3
  %10 = getelementptr i8, ptr %9, i64 4
  %.val.i.i = load i32, ptr %10, align 4
  %11 = lshr i32 %.val.i.i, 13
  %12 = and i32 %11, 2040
  %13 = getelementptr inbounds nuw i8, ptr %9, i64 8
  %14 = zext nneg i32 %12 to i64
  %15 = getelementptr inbounds nuw i8, ptr %13, i64 %14
  %16 = load i64, ptr %15, align 8, !tbaa !71
  %17 = and i64 %16, 1099511627776
  %18 = icmp eq i64 %17, 0
  %19 = load i64, ptr %7, align 8
  %20 = icmp eq i64 %19, 0
  %or.cond = select i1 %18, i1 true, i1 %20
  br i1 %or.cond, label %33, label %21

21:                                               ; preds = %3
  call void @llvm.lifetime.start.p0(i64 1, ptr nonnull %5) #25
  store i8 0, ptr %5, align 1, !tbaa !72
  call void @llvm.lifetime.start.p0(i64 32, ptr nonnull %6) #25
  %22 = getelementptr inbounds nuw i8, ptr %6, i64 16
  %23 = getelementptr inbounds nuw i8, ptr %6, i64 24
  %24 = getelementptr inbounds nuw i8, ptr %6, i64 8
  store i64 0, ptr %24, align 8
  %25 = call noalias noundef nonnull dereferenceable(24) ptr @_Znwm(i64 noundef 24) #29
  store ptr %5, ptr %25, align 16, !tbaa !73
  %.sroa.5.0..sroa_idx = getelementptr inbounds nuw i8, ptr %25, i64 8
  store ptr %1, ptr %.sroa.5.0..sroa_idx, align 8, !tbaa !81
  %.sroa.6.0..sroa_idx = getelementptr inbounds nuw i8, ptr %25, i64 16
  store ptr %2, ptr %.sroa.6.0..sroa_idx, align 16, !tbaa !83
  store ptr %25, ptr %6, align 8, !tbaa !16
  store ptr @"_ZNSt17_Function_handlerIFbRKN4lean4exprEjEZNS0_15mark_used_fvarsES3_RKNS0_6bufferIS1_Lm16EEERNS5_IbLm16EEEE3$_0E9_M_invokeERKSt9_Any_dataS3_Oj", ptr %23, align 8, !tbaa !75
  store ptr @"_ZNSt17_Function_handlerIFbRKN4lean4exprEjEZNS0_15mark_used_fvarsES3_RKNS0_6bufferIS1_Lm16EEERNS5_IbLm16EEEE3$_0E10_M_managerERSt9_Any_dataRKSD_St18_Manager_operation", ptr %22, align 8, !tbaa !78
  invoke void @_ZN4lean8for_eachERKNS_4exprEOSt8functionIFbS2_jEE(ptr noundef nonnull align 8 dereferenceable(8) %0, ptr noundef nonnull align 8 dereferenceable(32) %6)
          to label %26 unwind label %34

26:                                               ; preds = %21
  %27 = load ptr, ptr %22, align 8, !tbaa !78
  %.not.i = icmp eq ptr %27, null
  br i1 %.not.i, label %_ZNSt14_Function_baseD2Ev.exit, label %28

28:                                               ; preds = %26
  %29 = invoke noundef zeroext i1 %27(ptr noundef nonnull align 8 dereferenceable(32) %6, ptr noundef nonnull align 8 dereferenceable(32) %6, i32 noundef 3)
          to label %_ZNSt14_Function_baseD2Ev.exit unwind label %30

30:                                               ; preds = %28
  %31 = landingpad { ptr, i32 }
          catch ptr null
  %32 = extractvalue { ptr, i32 } %31, 0
  call void @__clang_call_terminate(ptr %32) #26
  unreachable

_ZNSt14_Function_baseD2Ev.exit:                   ; preds = %26, %28
  call void @llvm.lifetime.end.p0(i64 32, ptr nonnull %6) #25
  call void @llvm.lifetime.end.p0(i64 1, ptr nonnull %5) #25
  br label %33

33:                                               ; preds = %3, %_ZNSt14_Function_baseD2Ev.exit
  ret void

34:                                               ; preds = %21
  %35 = landingpad { ptr, i32 }
          cleanup
  %36 = load ptr, ptr %22, align 8, !tbaa !78
  %.not.i8 = icmp eq ptr %36, null
  br i1 %.not.i8, label %_ZNSt14_Function_baseD2Ev.exit9, label %37

37:                                               ; preds = %34
  %38 = invoke noundef zeroext i1 %36(ptr noundef nonnull align 8 dereferenceable(32) %6, ptr noundef nonnull align 8 dereferenceable(32) %6, i32 noundef 3)
          to label %_ZNSt14_Function_baseD2Ev.exit9 unwind label %39

39:                                               ; preds = %37
  %40 = landingpad { ptr, i32 }
          catch ptr null
  %41 = extractvalue { ptr, i32 } %40, 0
  call void @__clang_call_terminate(ptr %41) #26
  unreachable

_ZNSt14_Function_baseD2Ev.exit9:                  ; preds = %34, %37
  call void @llvm.lifetime.end.p0(i64 32, ptr nonnull %6) #25
  call void @llvm.lifetime.end.p0(i64 1, ptr nonnull %5) #25
  resume { ptr, i32 } %35
}